; Function Attrs: nounwind uwtable
define void @ff_vvc_report_frame_finished(ptr noundef readonly captures(none) %0) local_unnamed_addr #0 {
  %2 = getelementptr inbounds nuw i8, ptr %0, i64 88
  %3 = load ptr, ptr %2, align 8, !tbaa !149
  %4 = getelementptr inbounds nuw i8, ptr %3, i64 24
  %5 = tail call i32 @pthread_mutex_lock(ptr noundef nonnull %4) #9
  %6 = load atomic i32, ptr %3 seq_cst, align 4, !tbaa !118
  %.not = icmp eq i32 %6, 2147483647
  br i1 %.not, label %.thread.i, label %8

.thread.i:                                        ; preds = %1
  %7 = tail call i32 @pthread_mutex_unlock(ptr noundef nonnull %4) #9
  br label %ff_vvc_report_progress.exit

8:                                                ; preds = %1
  store atomic i32 2147483647, ptr %3 seq_cst, align 4, !tbaa !118
  %9 = getelementptr inbounds nuw i8, ptr %3, i64 8
  %10 = load ptr, ptr %9, align 8, !tbaa !236
  %.not14.i.i = icmp eq ptr %10, null
  br i1 %.not14.i.i, label %.loopexit.i, label %.lr.ph.i.i

.lr.ph.i.i:                                       ; preds = %8, %22
  %11 = phi ptr [ %23, %22 ], [ %10, %8 ]
  %.016.i.i = phi ptr [ %.1.i.i, %22 ], [ %9, %8 ]
  %.01115.i.i = phi ptr [ %.112.i.i, %22 ], [ null, %8 ]
  %12 = load i32, ptr %11, align 8, !tbaa !238
  %13 = zext i32 %12 to i64
  %14 = getelementptr inbounds nuw [2 x i32], ptr %3, i64 0, i64 %13
  %15 = load atomic i32, ptr %14 seq_cst, align 4, !tbaa !118
  %16 = getelementptr inbounds nuw i8, ptr %11, i64 4
  %17 = load i32, ptr %16, align 4, !tbaa !240
  %.not13.i.i = icmp sgt i32 %15, %17
  %18 = load ptr, ptr %.016.i.i, align 8, !tbaa !236
  %19 = getelementptr inbounds nuw i8, ptr %18, i64 16
  br i1 %.not13.i.i, label %20, label %22

20:                                               ; preds = %.lr.ph.i.i
  %21 = load ptr, ptr %19, align 8, !tbaa !241
  store ptr %21, ptr %.016.i.i, align 8, !tbaa !236
  store ptr %.01115.i.i, ptr %19, align 8, !tbaa !241
  br label %22

22:                                               ; preds = %20, %.lr.ph.i.i
  %.112.i.i = phi ptr [ %18, %20 ], [ %.01115.i.i, %.lr.ph.i.i ]
  %.1.i.i = phi ptr [ %.016.i.i, %20 ], [ %19, %.lr.ph.i.i ]
  %23 = load ptr, ptr %.1.i.i, align 8, !tbaa !236
  %.not.i.i = icmp eq ptr %23, null
  br i1 %.not.i.i, label %.loopexit.i, label %.lr.ph.i.i, !llvm.loop !242

.loopexit.i:                                      ; preds = %22, %8
  %.011.lcssa.i.i = phi ptr [ null, %8 ], [ %.112.i.i, %22 ]
  %24 = getelementptr inbounds nuw i8, ptr %3, i64 64
  %25 = tail call i32 @pthread_cond_signal(ptr noundef nonnull %24) #9
  %26 = tail call i32 @pthread_mutex_unlock(ptr noundef nonnull %4) #9
  %.not16.i = icmp eq ptr %.011.lcssa.i.i, null
  br i1 %.not16.i, label %ff_vvc_report_progress.exit, label %.lr.ph.i

.lr.ph.i:                                         ; preds = %.loopexit.i, %.lr.ph.i
  %.117.i = phi ptr [ %30, %.lr.ph.i ], [ %.011.lcssa.i.i, %.loopexit.i ]
  %27 = getelementptr inbounds nuw i8, ptr %.117.i, i64 8
  %28 = load ptr, ptr %27, align 8, !tbaa !243
  tail call void %28(ptr noundef nonnull %.117.i) #9
  %29 = getelementptr inbounds nuw i8, ptr %.117.i, i64 16
  %30 = load ptr, ptr %29, align 8, !tbaa !241
  %.not.i = icmp eq ptr %30, null
  br i1 %.not.i, label %ff_vvc_report_progress.exit, label %.lr.ph.i, !llvm.loop !244

ff_vvc_report_progress.exit:                      ; preds = %.lr.ph.i, %.thread.i, %.loopexit.i
  %31 = load ptr, ptr %2, align 8, !tbaa !149
  %32 = getelementptr inbounds nuw i8, ptr %31, i64 24
  %33 = tail call i32 @pthread_mutex_lock(ptr noundef nonnull %32) #9
  %34 = getelementptr inbounds nuw i8, ptr %31, i64 4
  %35 = load atomic i32, ptr %34 seq_cst, align 4, !tbaa !118
  %.not18 = icmp eq i32 %35, 2147483647
  br i1 %.not18, label %.thread.i2, label %37

.thread.i2:                                       ; preds = %ff_vvc_report_progress.exit
  %36 = tail call i32 @pthread_mutex_unlock(ptr noundef nonnull %32) #9
  br label %ff_vvc_report_progress.exit17

37:                                               ; preds = %ff_vvc_report_progress.exit
  store atomic i32 2147483647, ptr %34 seq_cst, align 4, !tbaa !118
  %38 = getelementptr inbounds nuw i8, ptr %31, i64 16
  %39 = load ptr, ptr %38, align 8, !tbaa !236
  %.not14.i.i3 = icmp eq ptr %39, null
  br i1 %.not14.i.i3, label %.loopexit.i11, label %.lr.ph.i.i4

.lr.ph.i.i4:                                      ; preds = %37, %51
  %40 = phi ptr [ %52, %51 ], [ %39, %37 ]
  %.016.i.i5 = phi ptr [ %.1.i.i9, %51 ], [ %38, %37 ]
  %.01115.i.i6 = phi ptr [ %.112.i.i8, %51 ], [ null, %37 ]
  %41 = load i32, ptr %40, align 8, !tbaa !238
  %42 = zext i32 %41 to i64
  %43 = getelementptr inbounds nuw [2 x i32], ptr %31, i64 0, i64 %42
  %44 = load atomic i32, ptr %43 seq_cst, align 4, !tbaa !118
  %45 = getelementptr inbounds nuw i8, ptr %40, i64 4
  %46 = load i32, ptr %45, align 4, !tbaa !240
  %.not13.i.i7 = icmp sgt i32 %44, %46
  %47 = load ptr, ptr %.016.i.i5, align 8, !tbaa !236
  %48 = getelementptr inbounds nuw i8, ptr %47, i64 16
  br i1 %.not13.i.i7, label %49, label %51

49:                                               ; preds = %.lr.ph.i.i4
  %50 = load ptr, ptr %48, align 8, !tbaa !241
  store ptr %50, ptr %.016.i.i5, align 8, !tbaa !236
  store ptr %.01115.i.i6, ptr %48, align 8, !tbaa !241
  br label %51

51:                                               ; preds = %49, %.lr.ph.i.i4
  %.112.i.i8 = phi ptr [ %47, %49 ], [ %.01115.i.i6, %.lr.ph.i.i4 ]
  %.1.i.i9 = phi ptr [ %.016.i.i5, %49 ], [ %48, %.lr.ph.i.i4 ]
  %52 = load ptr, ptr %.1.i.i9, align 8, !tbaa !236
  %.not.i.i10 = icmp eq ptr %52, null
  br i1 %.not.i.i10, label %.loopexit.i11, label %.lr.ph.i.i4, !llvm.loop !242

.loopexit.i11:                                    ; preds = %51, %37
  %.011.lcssa.i.i12 = phi ptr [ null, %37 ], [ %.112.i.i8, %51 ]
  %53 = getelementptr inbounds nuw i8, ptr %31, i64 64
  %54 = tail call i32 @pthread_cond_signal(ptr noundef nonnull %53) #9
  %55 = tail call i32 @pthread_mutex_unlock(ptr noundef nonnull %32) #9
  %.not16.i13 = icmp eq ptr %.011.lcssa.i.i12, null
  br i1 %.not16.i13, label %ff_vvc_report_progress.exit17, label %.lr.ph.i14

.lr.ph.i14:                                       ; preds = %.loopexit.i11, %.lr.ph.i14
  %.117.i15 = phi ptr [ %59, %.lr.ph.i14 ], [ %.011.lcssa.i.i12, %.loopexit.i11 ]
  %56 = getelementptr inbounds nuw i8, ptr %.117.i15, i64 8
  %57 = load ptr, ptr %56, align 8, !tbaa !243
  tail call void %57(ptr noundef nonnull %.117.i15) #9
  %58 = getelementptr inbounds nuw i8, ptr %.117.i15, i64 16
  %59 = load ptr, ptr %58, align 8, !tbaa !241
  %.not.i16 = icmp eq ptr %59, null
  br i1 %.not.i16, label %ff_vvc_report_progress.exit17, label %.lr.ph.i14, !llvm.loop !244

ff_vvc_report_progress.exit17:                    ; preds = %.lr.ph.i14, %.thread.i2, %.loopexit.i11
  ret void
}